target datalayout = "e-m:e-p270:32:32-p271:32:32-p272:64:64-i64:64-i128:128-f80:128-n8:16:32:64-S128"
target triple = "x86_64-pc-linux-gnu"

%struct.ExpandedRecordHeader = type { %struct.ExpandedObjectHeader, i32, i32, i32, i32, i32, ptr, i64, ptr, ptr, i32, i64, i64, i32, i8, ptr, ptr, ptr, ptr, ptr, ptr, %struct.MemoryContextCallback }
%struct.ExpandedObjectHeader = type { i32, ptr, ptr, [10 x i8], [10 x i8] }
%struct.MemoryContextCallback = type { ptr, ptr, ptr }

; Function Attrs: nounwind uwtable
define dso_local i64 @expanded_record_fetch_field(ptr noundef %0, i32 noundef %1, ptr noundef %2) #0 {
  %4 = alloca i64, align 8
  %5 = alloca ptr, align 8
  %6 = alloca i32, align 4
  %7 = alloca ptr, align 8
  store ptr %0, ptr %5, align 8
  store i32 %1, ptr %6, align 4
  store ptr %2, ptr %7, align 8
  %8 = load i32, ptr %6, align 4
  %9 = icmp sgt i32 %8, 0
  br i1 %9, label %10, label %53

10:                                               ; preds = %3
  %11 = load ptr, ptr %5, align 8
  %12 = getelementptr inbounds nuw %struct.ExpandedRecordHeader, ptr %11, i32 0, i32 2
  %13 = load i32, ptr %12, align 4
  %14 = and i32 %13, 5
  %15 = icmp eq i32 %14, 0
  br i1 %15, label %16, label %18

16:                                               ; preds = %10
  %17 = load ptr, ptr %7, align 8
  store i8 1, ptr %17, align 1
  store i64 0, ptr %4, align 8
  br label %67

18:                                               ; preds = %10
  %19 = load ptr, ptr %5, align 8
  call void @deconstruct_expanded_record(ptr noundef %19)
  %20 = load i32, ptr %6, align 4
  %21 = load ptr, ptr %5, align 8
  %22 = getelementptr inbounds nuw %struct.ExpandedRecordHeader, ptr %21, i32 0, i32 10
  %23 = load i32, ptr %22, align 8
  %24 = icmp sgt i32 %20, %23
  %25 = zext i1 %24 to i32
  %26 = icmp ne i32 %25, 0
  %27 = zext i1 %26 to i32
  %28 = sext i32 %27 to i64
  %29 = call i64 @llvm.expect.i64(i64 %28, i64 0)
  %30 = icmp ne i64 %29, 0
  br i1 %30, label %31, label %33

31:                                               ; preds = %18
  %32 = load ptr, ptr %7, align 8
  store i8 1, ptr %32, align 1
  store i64 0, ptr %4, align 8
  br label %67

33:                                               ; preds = %18
  %34 = load ptr, ptr %5, align 8
  %35 = getelementptr inbounds nuw %struct.ExpandedRecordHeader, ptr %34, i32 0, i32 9
  %36 = load ptr, ptr %35, align 8
  %37 = load i32, ptr %6, align 4
  %38 = sub i32 %37, 1
  %39 = sext i32 %38 to i64
  %40 = getelementptr inbounds i8, ptr %36, i64 %39
  %41 = load i8, ptr %40, align 1, !range !4, !noundef !5
  %42 = trunc i8 %41 to i1
  %43 = load ptr, ptr %7, align 8
  %44 = zext i1 %42 to i8
  store i8 %44, ptr %43, align 1
  %45 = load ptr, ptr %5, align 8
  %46 = getelementptr inbounds nuw %struct.ExpandedRecordHeader, ptr %45, i32 0, i32 8
  %47 = load ptr, ptr %46, align 8
  %48 = load i32, ptr %6, align 4
  %49 = sub i32 %48, 1
  %50 = sext i32 %49 to i64
  %51 = getelementptr inbounds i64, ptr %47, i64 %50
  %52 = load i64, ptr %51, align 8
  store i64 %52, ptr %4, align 8
  br label %67

53:                                               ; preds = %3
  %54 = load ptr, ptr %5, align 8
  %55 = getelementptr inbounds nuw %struct.ExpandedRecordHeader, ptr %54, i32 0, i32 15
  %56 = load ptr, ptr %55, align 8
  %57 = icmp eq ptr %56, null
  br i1 %57, label %58, label %60

58:                                               ; preds = %53
  %59 = load ptr, ptr %7, align 8
  store i8 1, ptr %59, align 1
  store i64 0, ptr %4, align 8
  br label %67

60:                                               ; preds = %53
  %61 = load ptr, ptr %5, align 8
  %62 = getelementptr inbounds nuw %struct.ExpandedRecordHeader, ptr %61, i32 0, i32 15
  %63 = load ptr, ptr %62, align 8
  %64 = load i32, ptr %6, align 4
  %65 = load ptr, ptr %7, align 8
  %66 = call i64 @heap_getsysattr(ptr noundef %63, i32 noundef %64, ptr noundef null, ptr noundef %65)
  store i64 %66, ptr %4, align 8
  br label %67

67:                                               ; preds = %60, %58, %33, %31, %16
  %68 = load i64, ptr %4, align 8
  ret i64 %68
}