; Function Attrs: nounwind uwtable
define dso_local i64 @expanded_record_fetch_field(ptr noundef %0, i32 noundef %1, ptr noundef %2) local_unnamed_addr #0 {
  %4 = icmp sgt i32 %1, 0
  br i1 %4, label %5, label %27

5:                                                ; preds = %3
  %6 = getelementptr inbounds nuw i8, ptr %0, i64 52
  %7 = load i32, ptr %6, align 4
  %8 = and i32 %7, 5
  %9 = icmp eq i32 %8, 0
  br i1 %9, label %10, label %11

10:                                               ; preds = %5
  store i8 1, ptr %2, align 1
  br label %34

11:                                               ; preds = %5
  tail call void @deconstruct_expanded_record(ptr noundef nonnull %0)
  %12 = getelementptr inbounds nuw i8, ptr %0, i64 104
  %13 = load i32, ptr %12, align 8
  %14 = icmp sgt i32 %1, %13
  br i1 %14, label %15, label %16, !prof !4

15:                                               ; preds = %11
  store i8 1, ptr %2, align 1
  br label %34

16:                                               ; preds = %11
  %17 = getelementptr inbounds nuw i8, ptr %0, i64 96
  %18 = load ptr, ptr %17, align 8
  %19 = add nsw i32 %1, -1
  %20 = zext nneg i32 %19 to i64
  %21 = getelementptr inbounds nuw i8, ptr %18, i64 %20
  %22 = load i8, ptr %21, align 1, !range !5, !noundef !6
  store i8 %22, ptr %2, align 1
  %23 = getelementptr inbounds nuw i8, ptr %0, i64 88
  %24 = load ptr, ptr %23, align 8
  %25 = getelementptr inbounds nuw i64, ptr %24, i64 %20
  %26 = load i64, ptr %25, align 8
  br label %34

27:                                               ; preds = %3
  %28 = getelementptr inbounds nuw i8, ptr %0, i64 136
  %29 = load ptr, ptr %28, align 8
  %30 = icmp eq ptr %29, null
  br i1 %30, label %31, label %32

31:                                               ; preds = %27
  store i8 1, ptr %2, align 1
  br label %34

32:                                               ; preds = %27
  %33 = tail call i64 @heap_getsysattr(ptr noundef nonnull %29, i32 noundef %1, ptr noundef null, ptr noundef %2) #8
  br label %34

34:                                               ; preds = %32, %31, %16, %15, %10
  %.0 = phi i64 [ 0, %10 ], [ 0, %15 ], [ %26, %16 ], [ 0, %31 ], [ %33, %32 ]
  ret i64 %.0
}